target datalayout = "e-m:e-p270:32:32-p271:32:32-p272:64:64-i64:64-i128:128-f80:128-n8:16:32:64-S128"
target triple = "x86_64-pc-linux-gnu"

%struct.pmix_object_t = type { %union.pthread_mutex_t, ptr, i32, %struct.pmix_tma }
%struct.pmix_tma = type { ptr, ptr, ptr, ptr, ptr, ptr, ptr, ptr }
%union.pthread_mutex_t = type { %struct.__pthread_mutex_s }
%struct.__pthread_mutex_s = type { i32, i32, i32, i32, i32, i16, i16, %struct.__pthread_internal_list }
%struct.__pthread_internal_list = type { ptr, ptr }
%struct.timeval = type { i64, i64 }
%struct.pmix_hotel_t = type { %struct.pmix_object_t, i32, ptr, %struct.timeval, ptr, ptr, ptr, ptr, i32 }
%struct.event = type { %struct.event_callback, %union.anon.2, i32, ptr, %union.anon.4, i16, i16, %struct.timeval }
%struct.event_callback = type { %struct.anon.0, i16, i8, i8, %union.anon.1, ptr }
%struct.anon.0 = type { ptr, ptr }
%union.anon.1 = type { ptr }
%union.anon.2 = type { %struct.anon.3 }
%struct.anon.3 = type { ptr, ptr }
%union.anon.4 = type { %struct.anon.5 }
%struct.anon.5 = type { %struct.anon.6, %struct.timeval }
%struct.anon.6 = type { ptr, ptr }
%struct.pmix_hotel_room_t = type { ptr, %struct.event }

; Function Attrs: inlinehint nounwind uwtable
define internal void @pmix_hotel_checkout(ptr noundef %0, i32 noundef %1) #2 {
  %3 = alloca ptr, align 8
  %4 = alloca i32, align 4
  %5 = alloca ptr, align 8
  %6 = alloca i32, align 4
  store ptr %0, ptr %3, align 8, !tbaa !143
  store i32 %1, ptr %4, align 4, !tbaa !3
  call void @llvm.lifetime.start.p0(i64 8, ptr %5) #13
  %7 = load i32, ptr %4, align 4, !tbaa !3
  %8 = icmp sgt i32 0, %7
  br i1 %8, label %9, label %10

9:                                                ; preds = %2
  store i32 1, ptr %6, align 4
  br label %53

10:                                               ; preds = %2
  %11 = load ptr, ptr %3, align 8, !tbaa !143
  %12 = getelementptr inbounds nuw %struct.pmix_hotel_t, ptr %11, i32 0, i32 5
  %13 = load ptr, ptr %12, align 8, !tbaa !148
  %14 = load i32, ptr %4, align 4, !tbaa !3
  %15 = sext i32 %14 to i64
  %16 = getelementptr inbounds %struct.pmix_hotel_room_t, ptr %13, i64 %15
  store ptr %16, ptr %5, align 8, !tbaa !15
  %17 = load ptr, ptr %5, align 8, !tbaa !15
  %18 = getelementptr inbounds nuw %struct.pmix_hotel_room_t, ptr %17, i32 0, i32 0
  %19 = load ptr, ptr %18, align 8, !tbaa !149
  %20 = icmp ne ptr null, %19
  %21 = xor i1 %20, true
  %22 = xor i1 %21, true
  %23 = zext i1 %22 to i32
  %24 = sext i32 %23 to i64
  %25 = call i64 @llvm.expect.i64(i64 %24, i64 1)
  %26 = icmp ne i64 %25, 0
  br i1 %26, label %27, label %52

27:                                               ; preds = %10
  %28 = load ptr, ptr %5, align 8, !tbaa !15
  %29 = getelementptr inbounds nuw %struct.pmix_hotel_room_t, ptr %28, i32 0, i32 0
  store ptr null, ptr %29, align 8, !tbaa !149
  %30 = load ptr, ptr %3, align 8, !tbaa !143
  %31 = getelementptr inbounds nuw %struct.pmix_hotel_t, ptr %30, i32 0, i32 2
  %32 = load ptr, ptr %31, align 8, !tbaa !151
  %33 = icmp ne ptr null, %32
  br i1 %33, label %34, label %38

34:                                               ; preds = %27
  %35 = load ptr, ptr %5, align 8, !tbaa !15
  %36 = getelementptr inbounds nuw %struct.pmix_hotel_room_t, ptr %35, i32 0, i32 1
  %37 = call i32 @event_del(ptr noundef %36)
  br label %38

38:                                               ; preds = %34, %27
  %39 = load ptr, ptr %3, align 8, !tbaa !143
  %40 = getelementptr inbounds nuw %struct.pmix_hotel_t, ptr %39, i32 0, i32 8
  %41 = load i32, ptr %40, align 8, !tbaa !146
  %42 = add nsw i32 %41, 1
  store i32 %42, ptr %40, align 8, !tbaa !146
  %43 = load i32, ptr %4, align 4, !tbaa !3
  %44 = load ptr, ptr %3, align 8, !tbaa !143
  %45 = getelementptr inbounds nuw %struct.pmix_hotel_t, ptr %44, i32 0, i32 7
  %46 = load ptr, ptr %45, align 8, !tbaa !147
  %47 = load ptr, ptr %3, align 8, !tbaa !143
  %48 = getelementptr inbounds nuw %struct.pmix_hotel_t, ptr %47, i32 0, i32 8
  %49 = load i32, ptr %48, align 8, !tbaa !146
  %50 = sext i32 %49 to i64
  %51 = getelementptr inbounds i32, ptr %46, i64 %50
  store i32 %43, ptr %51, align 4, !tbaa !3
  br label %52

52:                                               ; preds = %38, %10
  store i32 0, ptr %6, align 4
  br label %53

53:                                               ; preds = %52, %9
  call void @llvm.lifetime.end.p0(i64 8, ptr %5) #13
  %54 = load i32, ptr %6, align 4
  switch i32 %54, label %56 [
    i32 0, label %55
    i32 1, label %55
  ]

55:                                               ; preds = %53, %53
  ret void

56:                                               ; preds = %53
  unreachable
}