; Function Attrs: inlinehint nounwind uwtable
define internal fastcc void @pmix_hotel_checkout(i32 noundef %0) unnamed_addr #6 {
  %2 = icmp slt i32 %0, 0
  br i1 %2, label %19, label %3

3:                                                ; preds = %1
  %4 = load ptr, ptr getelementptr inbounds nuw (i8, ptr @pmix_globals, i64 2256), align 8, !tbaa !142
  %5 = zext nneg i32 %0 to i64
  %6 = getelementptr inbounds nuw %struct.pmix_hotel_room_t, ptr %4, i64 %5
  %7 = load ptr, ptr %6, align 8, !tbaa !143
  %.not = icmp eq ptr %7, null
  br i1 %.not, label %19, label %8, !prof !140

8:                                                ; preds = %3
  store ptr null, ptr %6, align 8, !tbaa !143
  %9 = load ptr, ptr getelementptr inbounds nuw (i8, ptr @pmix_globals, i64 2224), align 8, !tbaa !145
  %.not10 = icmp eq ptr %9, null
  br i1 %.not10, label %13, label %10

10:                                               ; preds = %8
  %11 = getelementptr inbounds nuw i8, ptr %6, i64 8
  %12 = tail call i32 @event_del(ptr noundef nonnull %11) #15
  br label %13

13:                                               ; preds = %10, %8
  %14 = load i32, ptr getelementptr inbounds nuw (i8, ptr @pmix_globals, i64 2280), align 8, !tbaa !139
  %15 = add nsw i32 %14, 1
  store i32 %15, ptr getelementptr inbounds nuw (i8, ptr @pmix_globals, i64 2280), align 8, !tbaa !139
  %16 = load ptr, ptr getelementptr inbounds nuw (i8, ptr @pmix_globals, i64 2272), align 8, !tbaa !141
  %17 = sext i32 %15 to i64
  %18 = getelementptr inbounds i32, ptr %16, i64 %17
  store i32 %0, ptr %18, align 4, !tbaa !66
  br label %19

19:                                               ; preds = %3, %13, %1
  ret void
}